; Function Attrs: mustprogress uwtable
define void @_ZN3nix6Worker18makeDerivationGoalERKNS_9StorePathERKNS_11OutputsSpecENS_9BuildModeE(ptr dead_on_unwind noalias writable sret(%"class.std::shared_ptr.79") align 8 %0, ptr noundef nonnull align 8 dereferenceable(649) %1, ptr noundef nonnull align 8 dereferenceable(32) %2, ptr noundef nonnull align 8 dereferenceable(56) %3, i32 noundef %4) local_unnamed_addr #5 align 2 personality ptr @__gxx_personality_v0 {
  %6 = alloca i32, align 4
  %7 = alloca %"class.std::function", align 8
  store i32 %4, ptr %6, align 4
  %8 = getelementptr inbounds i8, ptr %7, i64 16
  %9 = getelementptr inbounds i8, ptr %7, i64 24
  %10 = getelementptr inbounds i8, ptr %7, i64 8
  store i64 0, ptr %10, align 8
  %11 = tail call noalias noundef nonnull dereferenceable(32) ptr @_Znwm(i64 noundef 32) #32
  store ptr %1, ptr %11, align 16
  %.sroa.2.0..sroa_idx = getelementptr inbounds i8, ptr %11, i64 8
  store ptr %2, ptr %.sroa.2.0..sroa_idx, align 8
  %.sroa.3.0..sroa_idx = getelementptr inbounds i8, ptr %11, i64 16
  store ptr %3, ptr %.sroa.3.0..sroa_idx, align 16
  %.sroa.4.0..sroa_idx = getelementptr inbounds i8, ptr %11, i64 24
  store ptr %6, ptr %.sroa.4.0..sroa_idx, align 8
  store ptr %11, ptr %7, align 8
  store ptr @"_ZNSt17_Function_handlerIFSt10shared_ptrIN3nix14DerivationGoalEEvEZNS1_6Worker18makeDerivationGoalERKNS1_9StorePathERKNS1_11OutputsSpecENS1_9BuildModeEE3$_0E9_M_invokeERKSt9_Any_data", ptr %9, align 8
  store ptr @"_ZNSt17_Function_handlerIFSt10shared_ptrIN3nix14DerivationGoalEEvEZNS1_6Worker18makeDerivationGoalERKNS1_9StorePathERKNS1_11OutputsSpecENS1_9BuildModeEE3$_0E10_M_managerERSt9_Any_dataRKSF_St18_Manager_operation", ptr %8, align 8
  invoke void @_ZN3nix6Worker24makeDerivationGoalCommonERKNS_9StorePathERKNS_11OutputsSpecESt8functionIFSt10shared_ptrINS_14DerivationGoalEEvEE(ptr dead_on_unwind writable sret(%"class.std::shared_ptr.79") align 8 %0, ptr noundef nonnull align 8 dereferenceable(649) %1, ptr noundef nonnull align 8 dereferenceable(32) %2, ptr noundef nonnull align 8 dereferenceable(56) %3, ptr noundef nonnull %7)
          to label %12 unwind label %19

12:                                               ; preds = %5
  %13 = load ptr, ptr %8, align 8
  %.not.i.i = icmp eq ptr %13, null
  br i1 %.not.i.i, label %_ZNSt8functionIFSt10shared_ptrIN3nix14DerivationGoalEEvEED2Ev.exit, label %14

14:                                               ; preds = %12
  %15 = invoke noundef zeroext i1 %13(ptr noundef nonnull align 8 dereferenceable(16) %7, ptr noundef nonnull align 8 dereferenceable(16) %7, i32 noundef 3)
          to label %_ZNSt8functionIFSt10shared_ptrIN3nix14DerivationGoalEEvEED2Ev.exit unwind label %16

16:                                               ; preds = %14
  %17 = landingpad { ptr, i32 }
          catch ptr null
  %18 = extractvalue { ptr, i32 } %17, 0
  call void @__clang_call_terminate(ptr %18) #34
  unreachable

_ZNSt8functionIFSt10shared_ptrIN3nix14DerivationGoalEEvEED2Ev.exit: ; preds = %12, %14
  ret void

19:                                               ; preds = %5
  %20 = landingpad { ptr, i32 }
          cleanup
  %21 = load ptr, ptr %8, align 8
  %.not.i.i6 = icmp eq ptr %21, null
  br i1 %.not.i.i6, label %_ZNSt8functionIFSt10shared_ptrIN3nix14DerivationGoalEEvEED2Ev.exit7, label %22

22:                                               ; preds = %19
  %23 = invoke noundef zeroext i1 %21(ptr noundef nonnull align 8 dereferenceable(16) %7, ptr noundef nonnull align 8 dereferenceable(16) %7, i32 noundef 3)
          to label %_ZNSt8functionIFSt10shared_ptrIN3nix14DerivationGoalEEvEED2Ev.exit7 unwind label %24

24:                                               ; preds = %22
  %25 = landingpad { ptr, i32 }
          catch ptr null
  %26 = extractvalue { ptr, i32 } %25, 0
  call void @__clang_call_terminate(ptr %26) #34
  unreachable

_ZNSt8functionIFSt10shared_ptrIN3nix14DerivationGoalEEvEED2Ev.exit7: ; preds = %19, %22
  resume { ptr, i32 } %20
}